; Function Attrs: nounwind uwtable
define hidden void @zif_is_float(ptr nocapture noundef readonly %0, ptr nocapture noundef writeonly %1) local_unnamed_addr #0 {
  %3 = getelementptr inbounds i8, ptr %0, i64 44
  %4 = load i32, ptr %3, align 4
  %cond.i = icmp eq i32 %4, 1
  br i1 %cond.i, label %6, label %5

5:                                                ; preds = %2
  tail call void @zend_wrong_parameters_count_error(i32 noundef 1, i32 noundef 1) #8
  tail call void @zend_wrong_parameter_error(i32 noundef 1, i32 noundef 0, ptr noundef null, i32 noundef 0, ptr noundef null) #8
  br label %php_is_type.exit

6:                                                ; preds = %2
  %7 = getelementptr inbounds i8, ptr %0, i64 88
  %8 = load i8, ptr %7, align 8
  %9 = icmp eq i8 %8, 5
  %10 = getelementptr inbounds i8, ptr %1, i64 8
  br i1 %9, label %11, label %12

11:                                               ; preds = %6
  store i32 3, ptr %10, align 8
  br label %php_is_type.exit

12:                                               ; preds = %6
  store i32 2, ptr %10, align 8
  br label %php_is_type.exit

php_is_type.exit:                                 ; preds = %5, %11, %12
  ret void
}